target datalayout = "e-m:e-p270:32:32-p271:32:32-p272:64:64-i64:64-i128:128-f80:128-n8:16:32:64-S128"
target triple = "x86_64-pc-linux-gnu"

%"struct.duckdb_zstd::HUF_CTableHeader" = type { i8, i8, [6 x i8] }

; Function Attrs: mustprogress nounwind uwtable
define internal noundef i64 @_ZN11duckdb_zstdL13HUF_getNbBitsEm(i64 noundef %0) #0 {
  %2 = alloca i64, align 8
  store i64 %0, ptr %2, align 8, !tbaa !9
  %3 = load i64, ptr %2, align 8, !tbaa !9
  %4 = and i64 %3, 255
  ret i64 %4
}

; Function Attrs: mustprogress nounwind uwtable
define i64 @_ZN11duckdb_zstd20HUF_readCTableHeaderEPKm(ptr noundef %0) #0 {
  %2 = alloca %"struct.duckdb_zstd::HUF_CTableHeader", align 1
  %3 = alloca ptr, align 8
  store ptr %0, ptr %3, align 8, !tbaa !3
  %4 = load ptr, ptr %3, align 8, !tbaa !3
  call void @llvm.memcpy.p0.p0.i64(ptr align 1 %2, ptr align 8 %4, i64 8, i1 false)
  %5 = load i64, ptr %2, align 1
  ret i64 %5
}

; Function Attrs: mustprogress uwtable
define noundef i32 @_ZN11duckdb_zstd23HUF_getNbBitsFromCTableEPKmj(ptr noundef %0, i32 noundef %1) #2 {
  %3 = alloca i32, align 4
  %4 = alloca ptr, align 8
  %5 = alloca i32, align 4
  %6 = alloca ptr, align 8
  %7 = alloca %"struct.duckdb_zstd::HUF_CTableHeader", align 1
  %8 = alloca i32, align 4
  store ptr %0, ptr %4, align 8, !tbaa !3
  store i32 %1, ptr %5, align 4, !tbaa !11
  call void @llvm.lifetime.start.p0(i64 8, ptr %6) #12
  %9 = load ptr, ptr %4, align 8, !tbaa !3
  %10 = getelementptr inbounds i64, ptr %9, i64 1
  store ptr %10, ptr %6, align 8, !tbaa !3
  %11 = load i32, ptr %5, align 4, !tbaa !11
  call void @llvm.lifetime.start.p0(i64 8, ptr %7) #12
  %12 = load ptr, ptr %4, align 8, !tbaa !3
  %13 = call i64 @_ZN11duckdb_zstd20HUF_readCTableHeaderEPKm(ptr noundef %12)
  store i64 %13, ptr %7, align 1
  %14 = getelementptr inbounds nuw %"struct.duckdb_zstd::HUF_CTableHeader", ptr %7, i32 0, i32 1
  %15 = load i8, ptr %14, align 1, !tbaa !31
  %16 = zext i8 %15 to i32
  %17 = icmp ugt i32 %11, %16
  call void @llvm.lifetime.end.p0(i64 8, ptr %7) #12
  br i1 %17, label %18, label %19

18:                                               ; preds = %2
  store i32 0, ptr %3, align 4
  store i32 1, ptr %8, align 4
  br label %27

19:                                               ; preds = %2
  %20 = load ptr, ptr %6, align 8, !tbaa !3
  %21 = load i32, ptr %5, align 4, !tbaa !11
  %22 = zext i32 %21 to i64
  %23 = getelementptr inbounds nuw i64, ptr %20, i64 %22
  %24 = load i64, ptr %23, align 8, !tbaa !9
  %25 = call noundef i64 @_ZN11duckdb_zstdL13HUF_getNbBitsEm(i64 noundef %24)
  %26 = trunc i64 %25 to i32
  store i32 %26, ptr %3, align 4
  store i32 1, ptr %8, align 4
  br label %27

27:                                               ; preds = %19, %18
  call void @llvm.lifetime.end.p0(i64 8, ptr %6) #12
  %28 = load i32, ptr %3, align 4
  ret i32 %28
}