; Function Attrs: mustprogress nofree norecurse nosync nounwind willreturn memory(argmem: read) uwtable
define noundef range(i32 0, 256) i32 @_ZN11duckdb_zstd23HUF_getNbBitsFromCTableEPKmj(ptr noundef readonly captures(none) %0, i32 noundef %1) local_unnamed_addr #0 {
  %.sroa.0.0.copyload.i = load i64, ptr %0, align 8
  %3 = trunc i64 %.sroa.0.0.copyload.i to i32
  %4 = lshr i32 %3, 8
  %5 = and i32 %4, 255
  %6 = icmp ugt i32 %1, %5
  br i1 %6, label %14, label %7

7:                                                ; preds = %2
  %8 = getelementptr inbounds nuw i8, ptr %0, i64 8
  %9 = zext nneg i32 %1 to i64
  %10 = getelementptr inbounds nuw i64, ptr %8, i64 %9
  %11 = load i64, ptr %10, align 8, !tbaa !8
  %12 = trunc i64 %11 to i32
  %13 = and i32 %12, 255
  br label %14

14:                                               ; preds = %2, %7
  %.0 = phi i32 [ %13, %7 ], [ 0, %2 ]
  ret i32 %.0
}